Certificate:
    Data:
        Version: 3 (0x2)
        Serial Number: 1 (0x1)
    Signature Algorithm: sha1WithRSAEncryption
        Issuer: C=US, ST=California, L=Los Altos, O=netSkope Inc, OU=IndiaDev, CN=caadmin.indiadev.local/emailAddress=linto@netskope.com
        Validity
            Not Before: Apr  8 08:59:42 2014 GMT
            Not After : Apr  8 08:59:42 2017 GMT
        Subject: C=US, ST=California, L=Los Altos, O=netSkope Inc, OU=IndiaDev, CN=caadmin.indiadev.local/emailAddress=linto@netskope.com
        Subject Public Key Info:
            Public Key Algorithm: rsaEncryption
                Public-Key: (2048 bit)
                Modulus:
                    00:d1:c5:b2:d4:8f:b6:00:2b:67:cf:bf:0b:1d:e8:
                    d6:2c:40:0a:b7:47:59:51:c1:83:0c:e4:4b:fb:8d:
                    1e:04:6f:cd:c3:fc:55:97:61:e8:52:1a:7d:ed:45:
                    fb:05:86:06:8d:36:85:60:07:ba:3c:23:63:2b:d4:
                    91:24:17:0b:b4:c9:b8:e4:bc:42:27:9d:cc:3f:6c:
                    57:65:21:2b:c3:f8:ee:c0:a0:55:df:4c:38:1a:00:
                    ee:81:0e:c9:41:42:21:8c:6e:2b:8a:97:b2:66:8c:
                    8b:bd:66:fc:4d:0f:e4:56:f2:05:6b:f5:93:b7:b4:
                    c5:f6:da:df:6e:d3:9c:72:83:30:9e:1e:52:c7:ec:
                    2b:5c:8a:34:80:8f:0a:d4:f2:7f:3e:c5:c8:70:d0:
                    93:19:73:67:ac:0c:e5:c8:f0:eb:67:18:9a:47:c9:
                    0f:3b:ec:8b:3f:f6:b1:cd:ed:81:5d:bd:10:f4:5e:
                    02:ed:7a:c5:14:ef:68:16:60:59:79:68:82:3a:a9:
                    6c:b1:30:ea:a6:d6:4f:cb:42:99:5f:e5:66:98:2e:
                    2b:a3:b1:e5:9a:58:a5:10:52:c0:11:b6:e9:86:5e:
                    bb:ea:20:8a:bc:fd:74:82:3d:75:41:c2:e9:c7:c4:
                    6d:42:36:a4:4a:70:2e:67:1f:13:d9:b9:98:ec:77:
                    d7:47
                Exponent: 65537 (0x10001)
        X509v3 extensions:
            X509v3 Subject Key Identifier: 
                15:34:33:91:F5:2A:21:4B:D9:0C:15:6C:05:02:24:80:AD:51:74:A7
            X509v3 Authority Key Identifier: 
                keyid:15:34:33:91:F5:2A:21:4B:D9:0C:15:6C:05:02:24:80:AD:51:74:A7
                DirName:/C=US/ST=California/L=Los Altos/O=netSkope Inc/OU=IndiaDev/CN=caadmin.indiadev.local/emailAddress=linto@netskope.com
                serial:01

            X509v3 Basic Constraints: 
                CA:TRUE
    Signature Algorithm: sha1WithRSAEncryption
         63:4c:04:ac:f5:c4:2e:b0:5e:c3:76:37:f2:dc:26:bb:19:78:
         c6:f1:ce:11:67:f4:34:cf:6f:94:95:77:61:dd:2e:a3:2e:73:
         76:e0:85:9f:71:93:a8:fe:e9:04:84:a8:e4:a4:e6:87:9f:25:
         d5:a4:ae:d5:1f:60:6e:e1:01:9b:50:22:cd:bc:b0:79:ce:50:
         a1:03:a6:4a:2c:c5:e9:1a:dd:0f:3d:ba:44:ae:5e:fc:e2:6f:
         85:59:6f:50:9a:ce:88:71:51:49:f3:c2:1d:80:55:be:79:09:
         e5:88:d1:af:0c:6b:85:7d:5c:9c:59:5d:2f:71:4d:69:57:20:
         fa:3f:74:99:8b:89:e6:49:b7:6c:8a:4f:99:4c:dd:7f:ef:8b:
         14:21:cc:8a:5b:91:f5:d1:41:ee:66:56:3a:1d:84:3a:d8:d8:
         73:fa:d1:fc:d2:b5:f6:97:24:9c:4d:6c:41:0e:73:a8:c1:91:
         dd:df:11:7a:e6:42:86:6d:ff:32:0f:20:0c:94:98:38:77:fb:
         0e:cb:07:66:8a:61:3a:b5:e0:c8:7d:d3:55:c5:61:c3:15:1a:
         de:dd:69:9c:00:dc:ef:a3:f7:db:e0:84:63:ad:d8:18:23:61:
         62:81:c2:bc:65:32:36:6d:1b:43:24:26:b4:84:00:84:36:56:
         85:75:1d:71
-----BEGIN CERTIFICATE-----
MIIEzDCCA7SgAwIBAgIBATANBgkqhkiG9w0BAQUFADCBpDELMAkGA1UEBhMCVVMx
EzARBgNVBAgTCkNhbGlmb3JuaWExEjAQBgNVBAcTCUxvcyBBbHRvczEVMBMGA1UE
ChMMbmV0U2tvcGUgSW5jMREwDwYDVQQLEwhJbmRpYURldjEfMB0GA1UEAxMWY2Fh
ZG1pbi5pbmRpYWRldi5sb2NhbDEhMB8GCSqGSIb3DQEJARYSbGludG9AbmV0c2tv
cGUuY29tMB4XDTE0MDQwODA4NTk0MloXDTE3MDQwODA4NTk0MlowgaQxCzAJBgNV
BAYTAlVTMRMwEQYDVQQIEwpDYWxpZm9ybmlhMRIwEAYDVQQHEwlMb3MgQWx0b3Mx
FTATBgNVBAoTDG5ldFNrb3BlIEluYzERMA8GA1UECxMISW5kaWFEZXYxHzAdBgNV
BAMTFmNhYWRtaW4uaW5kaWFkZXYubG9jYWwxITAfBgkqhkiG9w0BCQEWEmxpbnRv
QG5ldHNrb3BlLmNvbTCCASIwDQYJKoZIhvcNAQEBBQADggEPADCCAQoCggEBANHF
stSPtgArZ8+/Cx3o1ixACrdHWVHBgwzkS/uNHgRvzcP8VZdh6FIafe1F+wWGBo02
hWAHujwjYyvUkSQXC7TJuOS8QiedzD9sV2UhK8P47sCgVd9MOBoA7oEOyUFCIYxu
K4qXsmaMi71m/E0P5FbyBWv1k7e0xfba327TnHKDMJ4eUsfsK1yKNICPCtTyfz7F
yHDQkxlzZ6wM5cjw62cYmkfJDzvsiz/2sc3tgV29EPReAu16xRTvaBZgWXlogjqp
bLEw6qbWT8tCmV/lZpguK6Ox5ZpYpRBSwBG26YZeu+ogirz9dII9dUHC6cfEbUI2
pEpwLmcfE9m5mOx310cCAwEAAaOCAQUwggEBMB0GA1UdDgQWBBQVNDOR9SohS9kM
FWwFAiSArVF0pzCB0QYDVR0jBIHJMIHGgBQVNDOR9SohS9kMFWwFAiSArVF0p6GB
qqSBpzCBpDELMAkGA1UEBhMCVVMxEzARBgNVBAgTCkNhbGlmb3JuaWExEjAQBgNV
BAcTCUxvcyBBbHRvczEVMBMGA1UEChMMbmV0U2tvcGUgSW5jMREwDwYDVQQLEwhJ
bmRpYURldjEfMB0GA1UEAxMWY2FhZG1pbi5pbmRpYWRldi5sb2NhbDEhMB8GCSqG
SIb3DQEJARYSbGludG9AbmV0c2tvcGUuY29tggEBMAwGA1UdEwQFMAMBAf8wDQYJ
KoZIhvcNAQEFBQADggEBAGNMBKz1xC6wXsN2N/LcJrsZeMbxzhFn9DTPb5SVd2Hd
LqMuc3bghZ9xk6j+6QSEqOSk5oefJdWkrtUfYG7hAZtQIs28sHnOUKEDpkosxeka
3Q89ukSuXvzib4VZb1CazohxUUnzwh2AVb55CeWI0a8Ma4V9XJxZXS9xTWlXIPo/
dJmLieZJt2yKT5lM3X/vixQhzIpbkfXRQe5mVjodhDrY2HP60fzStfaXJJxNbEEO
c6jBkd3fEXrmQoZt/zIPIAyUmDh3+w7LB2aKYTq14Mh901XFYcMVGt7daZwA3O+j
99vghGOt2BgjYWKBwrxlMjZtG0MkJrSEAIQ2VoV1HXE=
-----END CERTIFICATE-----
